target datalayout = "e-m:e-p270:32:32-p271:32:32-p272:64:64-i64:64-i128:128-f80:128-n8:16:32:64-S128"
target triple = "x86_64-pc-linux-gnu"

%"class.std::set" = type { %"class.std::_Rb_tree.67" }
%"class.std::_Rb_tree.67" = type { %"struct.std::_Rb_tree<unsigned int, unsigned int, std::_Identity<unsigned int>, std::less<unsigned int>>::_Rb_tree_impl" }
%"struct.std::_Rb_tree<unsigned int, unsigned int, std::_Identity<unsigned int>, std::less<unsigned int>>::_Rb_tree_impl" = type { [8 x i8], %"struct.std::_Rb_tree_header" }
%"struct.std::_Rb_tree_header" = type { %"struct.std::_Rb_tree_node_base", i64 }
%"struct.std::_Rb_tree_node_base" = type { i32, ptr, ptr, ptr }
%"struct.std::_Rb_tree_const_iterator" = type { ptr }
%"struct.ue2::Report" = type { i32, i8, i64, i64, i64, i32, i32, i8, i32, i32, i32, i64, i64 }
%"struct.std::_Rb_tree_node" = type <{ %"struct.std::_Rb_tree_node_base", %"struct.__gnu_cxx::__aligned_membuf", [4 x i8] }>
%"struct.__gnu_cxx::__aligned_membuf" = type { [4 x i8] }

; Function Attrs: mustprogress nounwind uwtable
define linkonce_odr hidden noundef ptr @_ZNK9__gnu_cxx16__aligned_membufIjE7_M_addrEv(ptr noundef nonnull align 4 dereferenceable(4) %0) #1 comdat align 2 {
  %2 = alloca ptr, align 8
  store ptr %0, ptr %2, align 8
  %3 = load ptr, ptr %2, align 8
  %4 = getelementptr inbounds nuw %"struct.__gnu_cxx::__aligned_membuf", ptr %3, i32 0, i32 0
  ret ptr %4
}

; Function Attrs: mustprogress nounwind uwtable
define linkonce_odr hidden noundef ptr @_ZNK9__gnu_cxx16__aligned_membufIjE6_M_ptrEv(ptr noundef nonnull align 4 dereferenceable(4) %0) #1 comdat align 2 {
  %2 = alloca ptr, align 8
  store ptr %0, ptr %2, align 8
  %3 = load ptr, ptr %2, align 8
  %4 = call noundef ptr @_ZNK9__gnu_cxx16__aligned_membufIjE7_M_addrEv(ptr noundef nonnull align 4 dereferenceable(4) %3) #21
  ret ptr %4
}

; Function Attrs: mustprogress nounwind uwtable
define linkonce_odr dso_local void @_ZNSt23_Rb_tree_const_iteratorIjEC2EPKSt18_Rb_tree_node_base(ptr noundef nonnull align 8 dereferenceable(8) %0, ptr noundef %1) unnamed_addr #1 comdat align 2 {
  %3 = alloca ptr, align 8
  %4 = alloca ptr, align 8
  store ptr %0, ptr %3, align 8
  store ptr %1, ptr %4, align 8
  %5 = load ptr, ptr %3, align 8
  %6 = getelementptr inbounds nuw %"struct.std::_Rb_tree_const_iterator", ptr %5, i32 0, i32 0
  %7 = load ptr, ptr %4, align 8
  store ptr %7, ptr %6, align 8
  ret void
}

; Function Attrs: mustprogress nounwind uwtable
define linkonce_odr dso_local ptr @_ZNKSt8_Rb_treeIjjSt9_IdentityIjESt4lessIjESaIjEE3endEv(ptr noundef nonnull align 8 dereferenceable(48) %0) #1 comdat align 2 {
  %2 = alloca %"struct.std::_Rb_tree_const_iterator", align 8
  %3 = alloca ptr, align 8
  store ptr %0, ptr %3, align 8
  %4 = load ptr, ptr %3, align 8
  %5 = getelementptr inbounds nuw %"class.std::_Rb_tree.67", ptr %4, i32 0, i32 0
  %6 = getelementptr inbounds i8, ptr %5, i64 8
  %7 = getelementptr inbounds nuw %"struct.std::_Rb_tree_header", ptr %6, i32 0, i32 0
  call void @_ZNSt23_Rb_tree_const_iteratorIjEC2EPKSt18_Rb_tree_node_base(ptr noundef nonnull align 8 dereferenceable(8) %2, ptr noundef %7) #21
  %8 = getelementptr inbounds nuw %"struct.std::_Rb_tree_const_iterator", ptr %2, i32 0, i32 0
  %9 = load ptr, ptr %8, align 8
  ret ptr %9
}

; Function Attrs: mustprogress nounwind uwtable
define linkonce_odr dso_local noundef ptr @_ZNKSt13_Rb_tree_nodeIjE9_M_valptrEv(ptr noundef nonnull align 8 dereferenceable(36) %0) #1 comdat align 2 {
  %2 = alloca ptr, align 8
  store ptr %0, ptr %2, align 8
  %3 = load ptr, ptr %2, align 8
  %4 = getelementptr inbounds nuw %"struct.std::_Rb_tree_node", ptr %3, i32 0, i32 1
  %5 = call noundef ptr @_ZNK9__gnu_cxx16__aligned_membufIjE6_M_ptrEv(ptr noundef nonnull align 4 dereferenceable(4) %4) #21
  ret ptr %5
}

; Function Attrs: mustprogress nounwind uwtable
define linkonce_odr dso_local ptr @_ZNKSt8_Rb_treeIjjSt9_IdentityIjESt4lessIjESaIjEE5beginEv(ptr noundef nonnull align 8 dereferenceable(48) %0) #1 comdat align 2 {
  %2 = alloca %"struct.std::_Rb_tree_const_iterator", align 8
  %3 = alloca ptr, align 8
  store ptr %0, ptr %3, align 8
  %4 = load ptr, ptr %3, align 8
  %5 = getelementptr inbounds nuw %"class.std::_Rb_tree.67", ptr %4, i32 0, i32 0
  %6 = getelementptr inbounds i8, ptr %5, i64 8
  %7 = getelementptr inbounds nuw %"struct.std::_Rb_tree_header", ptr %6, i32 0, i32 0
  %8 = getelementptr inbounds nuw %"struct.std::_Rb_tree_node_base", ptr %7, i32 0, i32 2
  %9 = load ptr, ptr %8, align 8
  call void @_ZNSt23_Rb_tree_const_iteratorIjEC2EPKSt18_Rb_tree_node_base(ptr noundef nonnull align 8 dereferenceable(8) %2, ptr noundef %9) #21
  %10 = getelementptr inbounds nuw %"struct.std::_Rb_tree_const_iterator", ptr %2, i32 0, i32 0
  %11 = load ptr, ptr %10, align 8
  ret ptr %11
}

; Function Attrs: mustprogress nounwind uwtable
define linkonce_odr dso_local noundef zeroext i1 @_ZNKSt8_Rb_treeIjjSt9_IdentityIjESt4lessIjESaIjEE5emptyEv(ptr noundef nonnull align 8 dereferenceable(48) %0) #1 comdat align 2 {
  %2 = alloca ptr, align 8
  store ptr %0, ptr %2, align 8
  %3 = load ptr, ptr %2, align 8
  %4 = getelementptr inbounds nuw %"class.std::_Rb_tree.67", ptr %3, i32 0, i32 0
  %5 = getelementptr inbounds i8, ptr %4, i64 8
  %6 = getelementptr inbounds nuw %"struct.std::_Rb_tree_header", ptr %5, i32 0, i32 1
  %7 = load i64, ptr %6, align 8
  %8 = icmp eq i64 %7, 0
  ret i1 %8
}

; Function Attrs: mustprogress nounwind uwtable
define linkonce_odr dso_local noundef nonnull align 8 dereferenceable(8) ptr @_ZNSt23_Rb_tree_const_iteratorIjEppEv(ptr noundef nonnull align 8 dereferenceable(8) %0) #1 comdat align 2 {
  %2 = alloca ptr, align 8
  store ptr %0, ptr %2, align 8
  %3 = load ptr, ptr %2, align 8
  %4 = getelementptr inbounds nuw %"struct.std::_Rb_tree_const_iterator", ptr %3, i32 0, i32 0
  %5 = load ptr, ptr %4, align 8
  %6 = call noundef ptr @_ZSt18_Rb_tree_incrementPKSt18_Rb_tree_node_base(ptr noundef %5) #26
  %7 = getelementptr inbounds nuw %"struct.std::_Rb_tree_const_iterator", ptr %3, i32 0, i32 0
  store ptr %6, ptr %7, align 8
  ret ptr %3
}

; Function Attrs: mustprogress nounwind uwtable
define linkonce_odr dso_local noundef zeroext i1 @_ZStneRKSt23_Rb_tree_const_iteratorIjES2_(ptr noundef nonnull align 8 dereferenceable(8) %0, ptr noundef nonnull align 8 dereferenceable(8) %1) #1 comdat {
  %3 = alloca ptr, align 8
  %4 = alloca ptr, align 8
  store ptr %0, ptr %3, align 8
  store ptr %1, ptr %4, align 8
  %5 = load ptr, ptr %3, align 8
  %6 = getelementptr inbounds nuw %"struct.std::_Rb_tree_const_iterator", ptr %5, i32 0, i32 0
  %7 = load ptr, ptr %6, align 8
  %8 = load ptr, ptr %4, align 8
  %9 = getelementptr inbounds nuw %"struct.std::_Rb_tree_const_iterator", ptr %8, i32 0, i32 0
  %10 = load ptr, ptr %9, align 8
  %11 = icmp ne ptr %7, %10
  ret i1 %11
}

; Function Attrs: mustprogress nounwind uwtable
define linkonce_odr dso_local ptr @_ZNKSt3setIjSt4lessIjESaIjEE3endEv(ptr noundef nonnull align 8 dereferenceable(48) %0) #1 comdat align 2 {
  %2 = alloca %"struct.std::_Rb_tree_const_iterator", align 8
  %3 = alloca ptr, align 8
  store ptr %0, ptr %3, align 8
  %4 = load ptr, ptr %3, align 8
  %5 = getelementptr inbounds nuw %"class.std::set", ptr %4, i32 0, i32 0
  %6 = call ptr @_ZNKSt8_Rb_treeIjjSt9_IdentityIjESt4lessIjESaIjEE3endEv(ptr noundef nonnull align 8 dereferenceable(48) %5) #21
  %7 = getelementptr inbounds nuw %"struct.std::_Rb_tree_const_iterator", ptr %2, i32 0, i32 0
  store ptr %6, ptr %7, align 8
  %8 = getelementptr inbounds nuw %"struct.std::_Rb_tree_const_iterator", ptr %2, i32 0, i32 0
  %9 = load ptr, ptr %8, align 8
  ret ptr %9
}

; Function Attrs: mustprogress nounwind uwtable
define linkonce_odr dso_local noundef nonnull align 4 dereferenceable(4) ptr @_ZNKSt23_Rb_tree_const_iteratorIjEdeEv(ptr noundef nonnull align 8 dereferenceable(8) %0) #1 comdat align 2 personality ptr @__gxx_personality_v0 {
  %2 = alloca ptr, align 8
  store ptr %0, ptr %2, align 8
  %3 = load ptr, ptr %2, align 8
  %4 = getelementptr inbounds nuw %"struct.std::_Rb_tree_const_iterator", ptr %3, i32 0, i32 0
  %5 = load ptr, ptr %4, align 8
  %6 = invoke noundef ptr @_ZNKSt13_Rb_tree_nodeIjE9_M_valptrEv(ptr noundef nonnull align 8 dereferenceable(36) %5)
          to label %7 unwind label %8

7:                                                ; preds = %1
  ret ptr %6

8:                                                ; preds = %1
  %9 = landingpad { ptr, i32 }
          catch ptr null
  %10 = extractvalue { ptr, i32 } %9, 0
  call void @__clang_call_terminate(ptr %10) #23
  unreachable
}

; Function Attrs: mustprogress nounwind uwtable
define linkonce_odr dso_local ptr @_ZNKSt3setIjSt4lessIjESaIjEE5beginEv(ptr noundef nonnull align 8 dereferenceable(48) %0) #1 comdat align 2 {
  %2 = alloca %"struct.std::_Rb_tree_const_iterator", align 8
  %3 = alloca ptr, align 8
  store ptr %0, ptr %3, align 8
  %4 = load ptr, ptr %3, align 8
  %5 = getelementptr inbounds nuw %"class.std::set", ptr %4, i32 0, i32 0
  %6 = call ptr @_ZNKSt8_Rb_treeIjjSt9_IdentityIjESt4lessIjESaIjEE5beginEv(ptr noundef nonnull align 8 dereferenceable(48) %5) #21
  %7 = getelementptr inbounds nuw %"struct.std::_Rb_tree_const_iterator", ptr %2, i32 0, i32 0
  store ptr %6, ptr %7, align 8
  %8 = getelementptr inbounds nuw %"struct.std::_Rb_tree_const_iterator", ptr %2, i32 0, i32 0
  %9 = load ptr, ptr %8, align 8
  ret ptr %9
}

; Function Attrs: mustprogress nounwind uwtable
define linkonce_odr dso_local noundef zeroext i1 @_ZNKSt3setIjSt4lessIjESaIjEE5emptyEv(ptr noundef nonnull align 8 dereferenceable(48) %0) #1 comdat align 2 {
  %2 = alloca ptr, align 8
  store ptr %0, ptr %2, align 8
  %3 = load ptr, ptr %2, align 8
  %4 = getelementptr inbounds nuw %"class.std::set", ptr %3, i32 0, i32 0
  %5 = call noundef zeroext i1 @_ZNKSt8_Rb_treeIjjSt9_IdentityIjESt4lessIjESaIjEE5emptyEv(ptr noundef nonnull align 8 dereferenceable(48) %4) #21
  ret i1 %5
}

; Function Attrs: mustprogress uwtable
define internal noundef zeroext i1 @_ZN3ue2L15hasOffsetAdjustERKNS_13ReportManagerERNS_8NGHolderEPi(ptr noundef nonnull align 8 dereferenceable(505) %0, ptr noundef nonnull align 8 dereferenceable(136) %1, ptr noundef %2) #3 personality ptr @__gxx_personality_v0 {
  %4 = alloca i1, align 1
  %5 = alloca ptr, align 8
  %6 = alloca ptr, align 8
  %7 = alloca ptr, align 8
  %8 = alloca ptr, align 8
  %9 = alloca %"class.std::set", align 8
  %10 = alloca i32, align 4
  %11 = alloca i32, align 4
  %12 = alloca %"struct.std::_Rb_tree_const_iterator", align 8
  %13 = alloca ptr, align 8
  %14 = alloca i32, align 4
  %15 = alloca ptr, align 8
  %16 = alloca %"struct.std::_Rb_tree_const_iterator", align 8
  %17 = alloca %"struct.std::_Rb_tree_const_iterator", align 8
  %18 = alloca i32, align 4
  %19 = alloca ptr, align 8
  store ptr %0, ptr %5, align 8
  store ptr %1, ptr %6, align 8
  store ptr %2, ptr %7, align 8
  call void @llvm.lifetime.start.p0(i64 8, ptr %8) #21
  call void @llvm.lifetime.start.p0(i64 48, ptr %9) #21
  %20 = load ptr, ptr %6, align 8
  call void @_ZN3ue211all_reportsERKNS_8NGHolderE(ptr dead_on_unwind writable sret(%"class.std::set") align 8 %9, ptr noundef nonnull align 8 dereferenceable(136) %20)
  store ptr %9, ptr %8, align 8
  %21 = load ptr, ptr %8, align 8
  %22 = call noundef zeroext i1 @_ZNKSt3setIjSt4lessIjESaIjEE5emptyEv(ptr noundef nonnull align 8 dereferenceable(48) %21) #21
  br i1 %22, label %23, label %24

23:                                               ; preds = %3
  store i1 false, ptr %4, align 1
  store i32 1, ptr %10, align 4
  br label %85

24:                                               ; preds = %3
  call void @llvm.lifetime.start.p0(i64 4, ptr %11) #21
  %25 = load ptr, ptr %5, align 8
  call void @llvm.lifetime.start.p0(i64 8, ptr %12) #21
  %26 = load ptr, ptr %8, align 8
  %27 = call ptr @_ZNKSt3setIjSt4lessIjESaIjEE5beginEv(ptr noundef nonnull align 8 dereferenceable(48) %26) #21
  %28 = getelementptr inbounds nuw %"struct.std::_Rb_tree_const_iterator", ptr %12, i32 0, i32 0
  store ptr %27, ptr %28, align 8
  %29 = call noundef nonnull align 4 dereferenceable(4) ptr @_ZNKSt23_Rb_tree_const_iteratorIjEdeEv(ptr noundef nonnull align 8 dereferenceable(8) %12) #21
  %30 = load i32, ptr %29, align 4
  %31 = invoke noundef nonnull align 8 dereferenceable(72) ptr @_ZNK3ue213ReportManager9getReportEj(ptr noundef nonnull align 8 dereferenceable(505) %25, i32 noundef %30)
          to label %32 unwind label %45

32:                                               ; preds = %24
  %33 = getelementptr inbounds nuw %"struct.ue2::Report", ptr %31, i32 0, i32 8
  %34 = load i32, ptr %33, align 4
  call void @llvm.lifetime.end.p0(i64 8, ptr %12) #21
  store i32 %34, ptr %11, align 4
  call void @llvm.lifetime.start.p0(i64 8, ptr %15) #21
  %35 = load ptr, ptr %8, align 8
  store ptr %35, ptr %15, align 8
  call void @llvm.lifetime.start.p0(i64 8, ptr %16) #21
  %36 = load ptr, ptr %15, align 8
  %37 = call ptr @_ZNKSt3setIjSt4lessIjESaIjEE5beginEv(ptr noundef nonnull align 8 dereferenceable(48) %36) #21
  %38 = getelementptr inbounds nuw %"struct.std::_Rb_tree_const_iterator", ptr %16, i32 0, i32 0
  store ptr %37, ptr %38, align 8
  call void @llvm.lifetime.start.p0(i64 8, ptr %17) #21
  %39 = load ptr, ptr %15, align 8
  %40 = call ptr @_ZNKSt3setIjSt4lessIjESaIjEE3endEv(ptr noundef nonnull align 8 dereferenceable(48) %39) #21
  %41 = getelementptr inbounds nuw %"struct.std::_Rb_tree_const_iterator", ptr %17, i32 0, i32 0
  store ptr %40, ptr %41, align 8
  br label %42

42:                                               ; preds = %76, %32
  %43 = call noundef zeroext i1 @_ZStneRKSt23_Rb_tree_const_iteratorIjES2_(ptr noundef nonnull align 8 dereferenceable(8) %16, ptr noundef nonnull align 8 dereferenceable(8) %17) #21
  br i1 %43, label %49, label %44

44:                                               ; preds = %42
  store i32 2, ptr %10, align 4
  br label %78

45:                                               ; preds = %24
  %46 = landingpad { ptr, i32 }
          cleanup
  %47 = extractvalue { ptr, i32 } %46, 0
  store ptr %47, ptr %13, align 8
  %48 = extractvalue { ptr, i32 } %46, 1
  store i32 %48, ptr %14, align 4
  call void @llvm.lifetime.end.p0(i64 8, ptr %12) #21
  br label %84

49:                                               ; preds = %42
  call void @llvm.lifetime.start.p0(i64 4, ptr %18) #21
  %50 = call noundef nonnull align 4 dereferenceable(4) ptr @_ZNKSt23_Rb_tree_const_iteratorIjEdeEv(ptr noundef nonnull align 8 dereferenceable(8) %16) #21
  %51 = load i32, ptr %50, align 4
  store i32 %51, ptr %18, align 4
  call void @llvm.lifetime.start.p0(i64 8, ptr %19) #21
  %52 = load ptr, ptr %5, align 8
  %53 = load i32, ptr %18, align 4
  %54 = invoke noundef nonnull align 8 dereferenceable(72) ptr @_ZNK3ue213ReportManager9getReportEj(ptr noundef nonnull align 8 dereferenceable(505) %52, i32 noundef %53)
          to label %55 unwind label %65

55:                                               ; preds = %49
  store ptr %54, ptr %19, align 8
  %56 = load ptr, ptr %19, align 8
  %57 = getelementptr inbounds nuw %"struct.ue2::Report", ptr %56, i32 0, i32 8
  %58 = load i32, ptr %57, align 4
  %59 = load i32, ptr %11, align 4
  %60 = icmp ne i32 %58, %59
  br i1 %60, label %61, label %69

61:                                               ; preds = %55
  br label %62

62:                                               ; preds = %61
  br label %63

63:                                               ; preds = %62
  br label %64

64:                                               ; preds = %63
  store i1 false, ptr %4, align 1
  store i32 1, ptr %10, align 4
  br label %70

65:                                               ; preds = %49
  %66 = landingpad { ptr, i32 }
          cleanup
  %67 = extractvalue { ptr, i32 } %66, 0
  store ptr %67, ptr %13, align 8
  %68 = extractvalue { ptr, i32 } %66, 1
  store i32 %68, ptr %14, align 4
  call void @llvm.lifetime.end.p0(i64 8, ptr %19) #21
  call void @llvm.lifetime.end.p0(i64 4, ptr %18) #21
  call void @llvm.lifetime.end.p0(i64 8, ptr %17) #21
  call void @llvm.lifetime.end.p0(i64 8, ptr %16) #21
  call void @llvm.lifetime.end.p0(i64 8, ptr %15) #21
  br label %84

69:                                               ; preds = %55
  store i32 0, ptr %10, align 4
  br label %70

70:                                               ; preds = %69, %64
  call void @llvm.lifetime.end.p0(i64 8, ptr %19) #21
  %71 = load i32, ptr %10, align 4
  switch i32 %71, label %73 [
    i32 0, label %72
  ]

72:                                               ; preds = %70
  store i32 0, ptr %10, align 4
  br label %73

73:                                               ; preds = %72, %70
  call void @llvm.lifetime.end.p0(i64 4, ptr %18) #21
  %74 = load i32, ptr %10, align 4
  switch i32 %74, label %78 [
    i32 0, label %75
  ]

75:                                               ; preds = %73
  br label %76

76:                                               ; preds = %75
  %77 = call noundef nonnull align 8 dereferenceable(8) ptr @_ZNSt23_Rb_tree_const_iteratorIjEppEv(ptr noundef nonnull align 8 dereferenceable(8) %16) #21
  br label %42

78:                                               ; preds = %73, %44
  call void @llvm.lifetime.end.p0(i64 8, ptr %17) #21
  call void @llvm.lifetime.end.p0(i64 8, ptr %16) #21
  call void @llvm.lifetime.end.p0(i64 8, ptr %15) #21
  %79 = load i32, ptr %10, align 4
  switch i32 %79, label %83 [
    i32 2, label %80
  ]

80:                                               ; preds = %78
  %81 = load i32, ptr %11, align 4
  %82 = load ptr, ptr %7, align 8
  store i32 %81, ptr %82, align 4
  store i1 true, ptr %4, align 1
  store i32 1, ptr %10, align 4
  br label %83

83:                                               ; preds = %80, %78
  call void @llvm.lifetime.end.p0(i64 4, ptr %11) #21
  br label %85

84:                                               ; preds = %65, %45
  call void @llvm.lifetime.end.p0(i64 4, ptr %11) #21
  call void @_ZNSt3setIjSt4lessIjESaIjEED2Ev(ptr noundef nonnull align 8 dereferenceable(48) %9) #21
  call void @llvm.lifetime.end.p0(i64 48, ptr %9) #21
  call void @llvm.lifetime.end.p0(i64 8, ptr %8) #21
  br label %87

85:                                               ; preds = %83, %23
  call void @_ZNSt3setIjSt4lessIjESaIjEED2Ev(ptr noundef nonnull align 8 dereferenceable(48) %9) #21
  call void @llvm.lifetime.end.p0(i64 48, ptr %9) #21
  call void @llvm.lifetime.end.p0(i64 8, ptr %8) #21
  %86 = load i1, ptr %4, align 1
  ret i1 %86

87:                                               ; preds = %84
  %88 = load ptr, ptr %13, align 8
  %89 = load i32, ptr %14, align 4
  %90 = insertvalue { ptr, i32 } poison, ptr %88, 0
  %91 = insertvalue { ptr, i32 } %90, i32 %89, 1
  resume { ptr, i32 } %91
}