; Function Attrs: mustprogress uwtable
define internal fastcc noundef zeroext i1 @_ZN3ue2L15hasOffsetAdjustERKNS_13ReportManagerERNS_8NGHolderEPi(ptr noundef nonnull align 8 dereferenceable(505) %0, ptr noundef nonnull align 8 dereferenceable(136) %1, ptr noundef nonnull writeonly captures(none) %2) unnamed_addr #0 personality ptr @__gxx_personality_v0 {
  %4 = alloca %"class.std::set", align 8
  call void @llvm.lifetime.start.p0(i64 48, ptr nonnull %4) #18
  call void @_ZN3ue211all_reportsERKNS_8NGHolderE(ptr dead_on_unwind nonnull writable sret(%"class.std::set") align 8 %4, ptr noundef nonnull align 8 dereferenceable(136) %1)
  %5 = getelementptr inbounds nuw i8, ptr %4, i64 40
  %6 = load i64, ptr %5, align 8
  %7 = icmp eq i64 %6, 0
  br i1 %7, label %.loopexit, label %8

8:                                                ; preds = %3
  %9 = getelementptr inbounds nuw i8, ptr %4, i64 24
  %10 = load ptr, ptr %9, align 8
  %11 = getelementptr inbounds nuw i8, ptr %10, i64 32
  %12 = load i32, ptr %11, align 4
  %13 = invoke noundef nonnull align 8 dereferenceable(72) ptr @_ZNK3ue213ReportManager9getReportEj(ptr noundef nonnull align 8 dereferenceable(505) %0, i32 noundef %12)
          to label %14 unwind label %19

14:                                               ; preds = %8
  %15 = getelementptr inbounds nuw i8, ptr %13, i64 44
  %16 = load i32, ptr %15, align 4
  %17 = load ptr, ptr %9, align 8
  %18 = getelementptr inbounds nuw i8, ptr %4, i64 8
  %.not2932 = icmp eq ptr %17, %18
  br i1 %.not2932, label %.critedge, label %.lr.ph

19:                                               ; preds = %8
  %20 = landingpad { ptr, i32 }
          cleanup
  br label %31

.lr.ph:                                           ; preds = %14, %29
  %.sroa.025.033 = phi ptr [ %30, %29 ], [ %17, %14 ]
  %21 = getelementptr inbounds nuw i8, ptr %.sroa.025.033, i64 32
  %22 = load i32, ptr %21, align 4
  %23 = invoke noundef nonnull align 8 dereferenceable(72) ptr @_ZNK3ue213ReportManager9getReportEj(ptr noundef nonnull align 8 dereferenceable(505) %0, i32 noundef %22)
          to label %24 unwind label %27

24:                                               ; preds = %.lr.ph
  %25 = getelementptr inbounds nuw i8, ptr %23, i64 44
  %26 = load i32, ptr %25, align 4
  %.not = icmp eq i32 %26, %16
  br i1 %.not, label %29, label %.loopexit

27:                                               ; preds = %.lr.ph
  %28 = landingpad { ptr, i32 }
          cleanup
  br label %31

29:                                               ; preds = %24
  %30 = call noundef ptr @_ZSt18_Rb_tree_incrementPKSt18_Rb_tree_node_base(ptr noundef nonnull %.sroa.025.033) #21
  %.not29 = icmp eq ptr %30, %18
  br i1 %.not29, label %.critedge, label %.lr.ph

.critedge:                                        ; preds = %29, %14
  store i32 %16, ptr %2, align 4
  br label %.loopexit

31:                                               ; preds = %27, %19
  %.pn = phi { ptr, i32 } [ %28, %27 ], [ %20, %19 ]
  call void @_ZNSt3setIjSt4lessIjESaIjEED2Ev(ptr noundef nonnull align 8 dereferenceable(48) %4) #18
  call void @llvm.lifetime.end.p0(i64 48, ptr nonnull %4) #18
  resume { ptr, i32 } %.pn

.loopexit:                                        ; preds = %24, %.critedge, %3
  %.0 = phi i1 [ false, %3 ], [ true, %.critedge ], [ false, %24 ]
  %32 = getelementptr inbounds nuw i8, ptr %4, i64 16
  %33 = load ptr, ptr %32, align 8
  invoke void @_ZNSt8_Rb_treeIjjSt9_IdentityIjESt4lessIjESaIjEE8_M_eraseEPSt13_Rb_tree_nodeIjE(ptr noundef nonnull align 8 dereferenceable(48) %4, ptr noundef %33)
          to label %_ZNSt3setIjSt4lessIjESaIjEED2Ev.exit unwind label %34

34:                                               ; preds = %.loopexit
  %35 = landingpad { ptr, i32 }
          catch ptr null
  %36 = extractvalue { ptr, i32 } %35, 0
  call void @__clang_call_terminate(ptr %36) #22
  unreachable

_ZNSt3setIjSt4lessIjESaIjEED2Ev.exit:             ; preds = %.loopexit
  call void @llvm.lifetime.end.p0(i64 48, ptr nonnull %4) #18
  ret i1 %.0
}